target datalayout = "e-m:e-p270:32:32-p271:32:32-p272:64:64-i64:64-i128:128-f80:128-n8:16:32:64-S128"
target triple = "x86_64-pc-linux-gnu"

%class.OopHandle = type { ptr }
%class.G1MonitoringSupport = type { ptr, %class.GCMemoryManager, %class.GCMemoryManager, %class.GCMemoryManager, ptr, ptr, ptr, ptr, ptr, ptr, ptr, ptr, ptr, ptr, ptr, ptr, i64, i64, i64, i64, i64, i64, i64, i64, i64 }
%class.GCMemoryManager = type <{ %class.MemoryManager.base, [7 x i8], i64, %class.elapsedTimer, ptr, ptr, ptr, i32, i8, [10 x i8], i8 }>
%class.MemoryManager.base = type <{ ptr, [10 x ptr], i32, [4 x i8], ptr, %class.OopHandle, i8 }>
%class.elapsedTimer = type <{ i64, i64, i8, [7 x i8] }>

@UsePerfData = external global i8, align 1

; Function Attrs: mustprogress nounwind uwtable
define hidden void @_ZN19G1MonitoringSupport12update_sizesEv(ptr noundef nonnull align 8 dereferenceable(752) %0) #1 align 2 {
  %2 = alloca ptr, align 8
  store ptr %0, ptr %2, align 8
  %3 = load ptr, ptr %2, align 8
  call void @_ZN19G1MonitoringSupport17recalculate_sizesEv(ptr noundef nonnull align 8 dereferenceable(752) %3)
  %4 = load i8, ptr @UsePerfData, align 1
  %5 = trunc i8 %4 to i1
  br i1 %5, label %6, label %41

6:                                                ; preds = %1
  %7 = getelementptr inbounds %class.G1MonitoringSupport, ptr %3, i32 0, i32 13
  %8 = load ptr, ptr %7, align 8
  %9 = getelementptr inbounds %class.G1MonitoringSupport, ptr %3, i32 0, i32 20
  %10 = load i64, ptr %9, align 8
  call void @_ZN14HSpaceCounters15update_capacityEm(ptr noundef nonnull align 8 dereferenceable(24) %8, i64 noundef %10)
  %11 = getelementptr inbounds %class.G1MonitoringSupport, ptr %3, i32 0, i32 13
  %12 = load ptr, ptr %11, align 8
  %13 = getelementptr inbounds %class.G1MonitoringSupport, ptr %3, i32 0, i32 21
  %14 = load i64, ptr %13, align 8
  call void @_ZN14HSpaceCounters11update_usedEm(ptr noundef nonnull align 8 dereferenceable(24) %12, i64 noundef %14)
  %15 = getelementptr inbounds %class.G1MonitoringSupport, ptr %3, i32 0, i32 15
  %16 = load ptr, ptr %15, align 8
  %17 = getelementptr inbounds %class.G1MonitoringSupport, ptr %3, i32 0, i32 22
  %18 = load i64, ptr %17, align 8
  call void @_ZN14HSpaceCounters15update_capacityEm(ptr noundef nonnull align 8 dereferenceable(24) %16, i64 noundef %18)
  %19 = getelementptr inbounds %class.G1MonitoringSupport, ptr %3, i32 0, i32 15
  %20 = load ptr, ptr %19, align 8
  %21 = getelementptr inbounds %class.G1MonitoringSupport, ptr %3, i32 0, i32 23
  %22 = load i64, ptr %21, align 8
  call void @_ZN14HSpaceCounters11update_usedEm(ptr noundef nonnull align 8 dereferenceable(24) %20, i64 noundef %22)
  %23 = getelementptr inbounds %class.G1MonitoringSupport, ptr %3, i32 0, i32 12
  %24 = load ptr, ptr %23, align 8
  %25 = getelementptr inbounds %class.G1MonitoringSupport, ptr %3, i32 0, i32 19
  %26 = load i64, ptr %25, align 8
  call void @_ZN14HSpaceCounters15update_capacityEm(ptr noundef nonnull align 8 dereferenceable(24) %24, i64 noundef %26)
  %27 = getelementptr inbounds %class.G1MonitoringSupport, ptr %3, i32 0, i32 12
  %28 = load ptr, ptr %27, align 8
  %29 = getelementptr inbounds %class.G1MonitoringSupport, ptr %3, i32 0, i32 24
  %30 = load i64, ptr %29, align 8
  call void @_ZN14HSpaceCounters11update_usedEm(ptr noundef nonnull align 8 dereferenceable(24) %28, i64 noundef %30)
  %31 = getelementptr inbounds %class.G1MonitoringSupport, ptr %3, i32 0, i32 10
  %32 = load ptr, ptr %31, align 8
  %33 = load ptr, ptr %32, align 8
  %34 = getelementptr inbounds ptr, ptr %33, i64 0
  %35 = load ptr, ptr %34, align 8
  call void %35(ptr noundef nonnull align 8 dereferenceable(32) %32)
  %36 = getelementptr inbounds %class.G1MonitoringSupport, ptr %3, i32 0, i32 11
  %37 = load ptr, ptr %36, align 8
  %38 = load ptr, ptr %37, align 8
  %39 = getelementptr inbounds ptr, ptr %38, i64 0
  %40 = load ptr, ptr %39, align 8
  call void %40(ptr noundef nonnull align 8 dereferenceable(32) %37)
  call void @_ZN17MetaspaceCounters27update_performance_countersEv()
  br label %41

41:                                               ; preds = %6, %1
  ret void
}