; Function Attrs: mustprogress nounwind uwtable
define hidden void @_ZN19G1MonitoringSupport12update_sizesEv(ptr nocapture noundef nonnull align 8 dereferenceable(752) %0) local_unnamed_addr #0 align 2 {
  tail call void @_ZN19G1MonitoringSupport17recalculate_sizesEv(ptr noundef nonnull align 8 dereferenceable(752) %0)
  %2 = load i8, ptr @UsePerfData, align 1
  %3 = trunc i8 %2 to i1
  br i1 %3, label %4, label %34

4:                                                ; preds = %1
  %5 = getelementptr inbounds i8, ptr %0, i64 656
  %6 = load ptr, ptr %5, align 8
  %7 = getelementptr inbounds i8, ptr %0, i64 712
  %8 = load i64, ptr %7, align 8
  tail call void @_ZN14HSpaceCounters15update_capacityEm(ptr noundef nonnull align 8 dereferenceable(24) %6, i64 noundef %8) #10
  %9 = load ptr, ptr %5, align 8
  %10 = getelementptr inbounds i8, ptr %0, i64 720
  %11 = load i64, ptr %10, align 8
  tail call void @_ZN14HSpaceCounters11update_usedEm(ptr noundef nonnull align 8 dereferenceable(24) %9, i64 noundef %11) #10
  %12 = getelementptr inbounds i8, ptr %0, i64 672
  %13 = load ptr, ptr %12, align 8
  %14 = getelementptr inbounds i8, ptr %0, i64 728
  %15 = load i64, ptr %14, align 8
  tail call void @_ZN14HSpaceCounters15update_capacityEm(ptr noundef nonnull align 8 dereferenceable(24) %13, i64 noundef %15) #10
  %16 = load ptr, ptr %12, align 8
  %17 = getelementptr inbounds i8, ptr %0, i64 736
  %18 = load i64, ptr %17, align 8
  tail call void @_ZN14HSpaceCounters11update_usedEm(ptr noundef nonnull align 8 dereferenceable(24) %16, i64 noundef %18) #10
  %19 = getelementptr inbounds i8, ptr %0, i64 648
  %20 = load ptr, ptr %19, align 8
  %21 = getelementptr inbounds i8, ptr %0, i64 704
  %22 = load i64, ptr %21, align 8
  tail call void @_ZN14HSpaceCounters15update_capacityEm(ptr noundef nonnull align 8 dereferenceable(24) %20, i64 noundef %22) #10
  %23 = load ptr, ptr %19, align 8
  %24 = getelementptr inbounds i8, ptr %0, i64 744
  %25 = load i64, ptr %24, align 8
  tail call void @_ZN14HSpaceCounters11update_usedEm(ptr noundef nonnull align 8 dereferenceable(24) %23, i64 noundef %25) #10
  %26 = getelementptr inbounds i8, ptr %0, i64 632
  %27 = load ptr, ptr %26, align 8
  %28 = load ptr, ptr %27, align 8
  %29 = load ptr, ptr %28, align 8
  tail call void %29(ptr noundef nonnull align 8 dereferenceable(32) %27) #10
  %30 = getelementptr inbounds i8, ptr %0, i64 640
  %31 = load ptr, ptr %30, align 8
  %32 = load ptr, ptr %31, align 8
  %33 = load ptr, ptr %32, align 8
  tail call void %33(ptr noundef nonnull align 8 dereferenceable(32) %31) #10
  tail call void @_ZN17MetaspaceCounters27update_performance_countersEv() #10
  br label %34

34:                                               ; preds = %4, %1
  ret void
}